#include <math.h>
#include <stdio.h>
#include <stdlib.h>
#include <string.h>

int main()
{
	int z,a,b,c,d,e;
	scanf("%d",&z);
	a=(int)z/10000;
	z=z-a*10000;
	b=(int)z/1000;
	z=z-b*1000;
	c=(int)z/100;
	z=z-c*100;
	d=(int)z/10;
	e=z-d*10;
	if(a==0)
		if(b==0)
			if(c==0)
				if(d==0)
					printf("%d",e);
				else
					printf("%d%d",e,d);
			else
				printf("%d%d%d",e,d,c);
		else
			printf("%d%d%d%d",e,d,c,b);
	else
		printf("%d%d%d%d%d",e,d,c,b,a);
	return 0;
}