; ModuleID = '16/717.c'
source_filename = "16/717.c"
target datalayout = "e-m:e-p270:32:32-p271:32:32-p272:64:64-i64:64-f80:128-n8:16:32:64-S128"
target triple = "x86_64-pc-linux-gnu"

@.str = private unnamed_addr constant [3 x i8] c"%d\00", align 1
@.str.1 = private unnamed_addr constant [5 x i8] c"%d%d\00", align 1
@.str.2 = private unnamed_addr constant [7 x i8] c"%d%d%d\00", align 1
@.str.3 = private unnamed_addr constant [9 x i8] c"%d%d%d%d\00", align 1
@.str.4 = private unnamed_addr constant [11 x i8] c"%d%d%d%d%d\00", align 1

; Function Attrs: noinline nounwind uwtable
define dso_local i32 @main() #0 {
  %1 = alloca i32, align 4
  %2 = alloca i32, align 4
  %3 = alloca i32, align 4
  %4 = alloca i32, align 4
  %5 = alloca i32, align 4
  %6 = alloca i32, align 4
  %7 = alloca i32, align 4
  store i32 0, i32* %1, align 4
  %8 = call i32 (i8*, ...) @__isoc99_scanf(i8* getelementptr inbounds ([3 x i8], [3 x i8]* @.str, i64 0, i64 0), i32* %2)
  %9 = load i32, i32* %2, align 4
  %10 = sdiv i32 %9, 10000
  store i32 %10, i32* %3, align 4
  %11 = load i32, i32* %2, align 4
  %12 = load i32, i32* %3, align 4
  %13 = mul nsw i32 %12, 10000
  %14 = sub nsw i32 %11, %13
  store i32 %14, i32* %2, align 4
  %15 = load i32, i32* %2, align 4
  %16 = sdiv i32 %15, 1000
  store i32 %16, i32* %4, align 4
  %17 = load i32, i32* %2, align 4
  %18 = load i32, i32* %4, align 4
  %19 = mul nsw i32 %18, 1000
  %20 = sub nsw i32 %17, %19
  store i32 %20, i32* %2, align 4
  %21 = load i32, i32* %2, align 4
  %22 = sdiv i32 %21, 100
  store i32 %22, i32* %5, align 4
  %23 = load i32, i32* %2, align 4
  %24 = load i32, i32* %5, align 4
  %25 = mul nsw i32 %24, 100
  %26 = sub nsw i32 %23, %25
  store i32 %26, i32* %2, align 4
  %27 = load i32, i32* %2, align 4
  %28 = sdiv i32 %27, 10
  store i32 %28, i32* %6, align 4
  %29 = load i32, i32* %2, align 4
  %30 = load i32, i32* %6, align 4
  %31 = mul nsw i32 %30, 10
  %32 = sub nsw i32 %29, %31
  store i32 %32, i32* %7, align 4
  %33 = load i32, i32* %3, align 4
  %34 = icmp eq i32 %33, 0
  br i1 %34, label %35, label %65

35:                                               ; preds = %0
  %36 = load i32, i32* %4, align 4
  %37 = icmp eq i32 %36, 0
  br i1 %37, label %38, label %58

38:                                               ; preds = %35
  %39 = load i32, i32* %5, align 4
  %40 = icmp eq i32 %39, 0
  br i1 %40, label %41, label %52

41:                                               ; preds = %38
  %42 = load i32, i32* %6, align 4
  %43 = icmp eq i32 %42, 0
  br i1 %43, label %44, label %47

44:                                               ; preds = %41
  %45 = load i32, i32* %7, align 4
  %46 = call i32 (i8*, ...) @printf(i8* getelementptr inbounds ([3 x i8], [3 x i8]* @.str, i64 0, i64 0), i32 %45)
  br label %51

47:                                               ; preds = %41
  %48 = load i32, i32* %7, align 4
  %49 = load i32, i32* %6, align 4
  %50 = call i32 (i8*, ...) @printf(i8* getelementptr inbounds ([5 x i8], [5 x i8]* @.str.1, i64 0, i64 0), i32 %48, i32 %49)
  br label %51

51:                                               ; preds = %47, %44
  br label %57

52:                                               ; preds = %38
  %53 = load i32, i32* %7, align 4
  %54 = load i32, i32* %6, align 4
  %55 = load i32, i32* %5, align 4
  %56 = call i32 (i8*, ...) @printf(i8* getelementptr inbounds ([7 x i8], [7 x i8]* @.str.2, i64 0, i64 0), i32 %53, i32 %54, i32 %55)
  br label %57

57:                                               ; preds = %52, %51
  br label %64

58:                                               ; preds = %35
  %59 = load i32, i32* %7, align 4
  %60 = load i32, i32* %6, align 4
  %61 = load i32, i32* %5, align 4
  %62 = load i32, i32* %4, align 4
  %63 = call i32 (i8*, ...) @printf(i8* getelementptr inbounds ([9 x i8], [9 x i8]* @.str.3, i64 0, i64 0), i32 %59, i32 %60, i32 %61, i32 %62)
  br label %64

64:                                               ; preds = %58, %57
  br label %72

65:                                               ; preds = %0
  %66 = load i32, i32* %7, align 4
  %67 = load i32, i32* %6, align 4
  %68 = load i32, i32* %5, align 4
  %69 = load i32, i32* %4, align 4
  %70 = load i32, i32* %3, align 4
  %71 = call i32 (i8*, ...) @printf(i8* getelementptr inbounds ([11 x i8], [11 x i8]* @.str.4, i64 0, i64 0), i32 %66, i32 %67, i32 %68, i32 %69, i32 %70)
  br label %72

72:                                               ; preds = %65, %64
  ret i32 0
}

declare dso_local i32 @__isoc99_scanf(i8*, ...) #1

declare dso_local i32 @printf(i8*, ...) #1


!llvm.module.flags = !{!0}
!llvm.ident = !{!1}

!0 = !{i32 1, !"wchar_size", i32 4}
!1 = !{!"clang version 10.0.0-4ubuntu1 "}
